; Function Attrs: inlinehint nofree norecurse nosync nounwind memory(argmem: readwrite) uwtable
define internal fastcc range(i32 0, 2) i32 @skip_iprefix(ptr noundef %0, ptr noundef nonnull writeonly captures(none) %1) unnamed_addr #22 {
  %scevgep = getelementptr i8, ptr %0, i64 7
  br label %3

3:                                                ; preds = %5, %2
  %.06 = phi ptr [ %0, %2 ], [ %7, %5 ]
  %.05.idx = phi i64 [ 0, %2 ], [ %.05.add, %5 ]
  %exitcond = icmp eq i64 %.05.idx, 7
  br i1 %exitcond, label %4, label %5

4:                                                ; preds = %3
  store ptr %scevgep, ptr %1, align 8, !tbaa !81
  br label %.loopexit

5:                                                ; preds = %3
  %.05.ptr = getelementptr inbounds nuw i8, ptr @.str.54, i64 %.05.idx
  %6 = load i8, ptr %.05.ptr, align 1, !tbaa !38
  %7 = getelementptr inbounds nuw i8, ptr %.06, i64 1
  %8 = load i8, ptr %.06, align 1, !tbaa !38
  %9 = zext i8 %8 to i64
  %10 = getelementptr inbounds nuw [256 x i8], ptr @sane_ctype, i64 0, i64 %9
  %11 = load i8, ptr %10, align 1, !tbaa !38
  %12 = shl i8 %11, 3
  %13 = and i8 %12, 32
  %spec.select.i1 = or i8 %13, %8
  %.05.add = add nuw nsw i64 %.05.idx, 1
  %14 = zext i8 %6 to i64
  %15 = getelementptr inbounds nuw [256 x i8], ptr @sane_ctype, i64 0, i64 %14
  %16 = load i8, ptr %15, align 1, !tbaa !38
  %17 = shl i8 %16, 3
  %18 = and i8 %17, 32
  %spec.select.i72 = or i8 %18, %6
  %19 = icmp eq i8 %spec.select.i1, %spec.select.i72
  br i1 %19, label %3, label %.loopexit, !llvm.loop !231

.loopexit:                                        ; preds = %5, %4
  %.0 = phi i32 [ 1, %4 ], [ 0, %5 ]
  ret i32 %.0
}